; ModuleID = 'source-C-CXX/49/1065.c'
source_filename = "source-C-CXX/49/1065.c"
target datalayout = "e-m:e-p270:32:32-p271:32:32-p272:64:64-i64:64-f80:128-n8:16:32:64-S128"
target triple = "x86_64-pc-linux-gnu"

@.str = private unnamed_addr constant [3 x i8] c"%d\00", align 1
@str = private unnamed_addr constant [3 x i8] c"12\00", align 1
@str.13 = private unnamed_addr constant [3 x i8] c"11\00", align 1
@str.14 = private unnamed_addr constant [3 x i8] c"10\00", align 1
@str.15 = private unnamed_addr constant [2 x i8] c"9\00", align 1
@str.16 = private unnamed_addr constant [2 x i8] c"8\00", align 1
@str.17 = private unnamed_addr constant [2 x i8] c"7\00", align 1
@str.18 = private unnamed_addr constant [2 x i8] c"6\00", align 1
@str.19 = private unnamed_addr constant [2 x i8] c"5\00", align 1
@str.20 = private unnamed_addr constant [2 x i8] c"4\00", align 1
@str.21 = private unnamed_addr constant [2 x i8] c"3\00", align 1
@str.22 = private unnamed_addr constant [2 x i8] c"2\00", align 1
@str.23 = private unnamed_addr constant [2 x i8] c"1\00", align 1

; Function Attrs: nofree nounwind sspstrong uwtable
define dso_local i32 @main() local_unnamed_addr #0 {
  %1 = alloca i32, align 4
  %2 = bitcast i32* %1 to i8*
  call void @llvm.lifetime.start.p0i8(i64 4, i8* nonnull %2) #4
  %3 = call i32 (i8*, ...) @__isoc99_scanf(i8* getelementptr inbounds ([3 x i8], [3 x i8]* @.str, i64 0, i64 0), i32* nonnull %1)
  %4 = load i32, i32* %1, align 4, !tbaa !5
  %5 = add nsw i32 %4, 12
  %6 = srem i32 %5, 7
  %7 = add nsw i32 %4, 43
  %8 = srem i32 %7, 7
  %9 = add nsw i32 %4, 71
  %10 = srem i32 %9, 7
  %11 = add nsw i32 %4, 102
  %12 = srem i32 %11, 7
  %13 = add nsw i32 %4, 132
  %14 = srem i32 %13, 7
  %15 = add nsw i32 %4, 163
  %16 = srem i32 %15, 7
  %17 = add nsw i32 %4, 193
  %18 = srem i32 %17, 7
  %19 = add nsw i32 %4, 224
  %20 = srem i32 %19, 7
  %21 = add nsw i32 %4, 255
  %22 = srem i32 %21, 7
  %23 = add nsw i32 %4, 285
  %24 = srem i32 %23, 7
  %25 = add nsw i32 %4, 316
  %26 = srem i32 %25, 7
  %27 = add nsw i32 %4, 346
  %28 = srem i32 %27, 7
  %29 = icmp eq i32 %6, 5
  br i1 %29, label %30, label %32

30:                                               ; preds = %0
  %31 = call i32 @puts(i8* nonnull dereferenceable(1) getelementptr inbounds ([2 x i8], [2 x i8]* @str.23, i64 0, i64 0))
  br label %32

32:                                               ; preds = %30, %0
  %33 = icmp eq i32 %8, 5
  br i1 %33, label %34, label %36

34:                                               ; preds = %32
  %35 = call i32 @puts(i8* nonnull dereferenceable(1) getelementptr inbounds ([2 x i8], [2 x i8]* @str.22, i64 0, i64 0))
  br label %36

36:                                               ; preds = %34, %32
  %37 = icmp eq i32 %10, 5
  br i1 %37, label %38, label %40

38:                                               ; preds = %36
  %39 = call i32 @puts(i8* nonnull dereferenceable(1) getelementptr inbounds ([2 x i8], [2 x i8]* @str.21, i64 0, i64 0))
  br label %40

40:                                               ; preds = %38, %36
  %41 = icmp eq i32 %12, 5
  br i1 %41, label %42, label %44

42:                                               ; preds = %40
  %43 = call i32 @puts(i8* nonnull dereferenceable(1) getelementptr inbounds ([2 x i8], [2 x i8]* @str.20, i64 0, i64 0))
  br label %44

44:                                               ; preds = %42, %40
  %45 = icmp eq i32 %14, 5
  br i1 %45, label %46, label %48

46:                                               ; preds = %44
  %47 = call i32 @puts(i8* nonnull dereferenceable(1) getelementptr inbounds ([2 x i8], [2 x i8]* @str.19, i64 0, i64 0))
  br label %48

48:                                               ; preds = %46, %44
  %49 = icmp eq i32 %16, 5
  br i1 %49, label %50, label %52

50:                                               ; preds = %48
  %51 = call i32 @puts(i8* nonnull dereferenceable(1) getelementptr inbounds ([2 x i8], [2 x i8]* @str.18, i64 0, i64 0))
  br label %52

52:                                               ; preds = %50, %48
  %53 = icmp eq i32 %18, 5
  br i1 %53, label %54, label %56

54:                                               ; preds = %52
  %55 = call i32 @puts(i8* nonnull dereferenceable(1) getelementptr inbounds ([2 x i8], [2 x i8]* @str.17, i64 0, i64 0))
  br label %56

56:                                               ; preds = %54, %52
  %57 = icmp eq i32 %20, 5
  br i1 %57, label %58, label %60

58:                                               ; preds = %56
  %59 = call i32 @puts(i8* nonnull dereferenceable(1) getelementptr inbounds ([2 x i8], [2 x i8]* @str.16, i64 0, i64 0))
  br label %60

60:                                               ; preds = %58, %56
  %61 = icmp eq i32 %22, 5
  br i1 %61, label %62, label %64

62:                                               ; preds = %60
  %63 = call i32 @puts(i8* nonnull dereferenceable(1) getelementptr inbounds ([2 x i8], [2 x i8]* @str.15, i64 0, i64 0))
  br label %64

64:                                               ; preds = %62, %60
  %65 = icmp eq i32 %24, 5
  br i1 %65, label %66, label %68

66:                                               ; preds = %64
  %67 = call i32 @puts(i8* nonnull dereferenceable(1) getelementptr inbounds ([3 x i8], [3 x i8]* @str.14, i64 0, i64 0))
  br label %68

68:                                               ; preds = %66, %64
  %69 = icmp eq i32 %26, 5
  br i1 %69, label %70, label %72

70:                                               ; preds = %68
  %71 = call i32 @puts(i8* nonnull dereferenceable(1) getelementptr inbounds ([3 x i8], [3 x i8]* @str.13, i64 0, i64 0))
  br label %72

72:                                               ; preds = %70, %68
  %73 = icmp eq i32 %28, 5
  br i1 %73, label %74, label %76

74:                                               ; preds = %72
  %75 = call i32 @puts(i8* nonnull dereferenceable(1) getelementptr inbounds ([3 x i8], [3 x i8]* @str, i64 0, i64 0))
  br label %76

76:                                               ; preds = %74, %72
  call void @llvm.lifetime.end.p0i8(i64 4, i8* nonnull %2) #4
  ret i32 0
}

; Function Attrs: argmemonly mustprogress nofree nosync nounwind willreturn
declare void @llvm.lifetime.start.p0i8(i64 immarg, i8* nocapture) #1

; Function Attrs: nofree nounwind
declare noundef i32 @__isoc99_scanf(i8* nocapture noundef readonly, ...) local_unnamed_addr #2

; Function Attrs: argmemonly mustprogress nofree nosync nounwind willreturn
declare void @llvm.lifetime.end.p0i8(i64 immarg, i8* nocapture) #1

; Function Attrs: nofree nounwind
declare noundef i32 @puts(i8* nocapture noundef readonly) local_unnamed_addr #3


!llvm.module.flags = !{!0, !1, !2, !3}
!llvm.ident = !{!4}

!0 = !{i32 1, !"wchar_size", i32 4}
!1 = !{i32 7, !"PIC Level", i32 2}
!2 = !{i32 7, !"PIE Level", i32 2}
!3 = !{i32 7, !"uwtable", i32 1}
!4 = !{!"clang version 13.0.0"}
!5 = !{!6, !6, i64 0}
!6 = !{!"int", !7, i64 0}
!7 = !{!"omnipotent char", !8, i64 0}
!8 = !{!"Simple C/C++ TBAA"}
